target datalayout = "e-m:e-p270:32:32-p271:32:32-p272:64:64-i64:64-i128:128-f80:128-n8:16:32:64-S128"
target triple = "x86_64-pc-linux-gnu"

@hf_ccp_opt_mode_dictcount = internal global i32 0, align 4
@hf_ccp_opt_dict_size = internal global i32 0, align 4
@hf_ccp_opt_history_length = internal global i32 0, align 4
@ett_ccp_v44lzjh_opt = internal global i32 0, align 4
@proto_ccp_option_v44lzjh = internal global i32 0, align 4

; Function Attrs: null_pointer_is_valid sspstrong uwtable
define internal i32 @dissect_ccp_v44lzjh_opt(ptr noundef %0, ptr noundef %1, ptr noundef %2, ptr noundef %3) #1 {
  %5 = alloca i32, align 4
  %6 = alloca ptr, align 8
  %7 = alloca ptr, align 8
  %8 = alloca ptr, align 8
  %9 = alloca ptr, align 8
  %10 = alloca ptr, align 8
  %11 = alloca ptr, align 8
  %12 = alloca i32, align 4
  %13 = alloca i32, align 4
  %14 = alloca i32, align 4
  store ptr %0, ptr %6, align 8
  store ptr %1, ptr %7, align 8
  store ptr %2, ptr %8, align 8
  store ptr %3, ptr %9, align 8
  call void @llvm.lifetime.start.p0(i64 8, ptr %10) #6
  call void @llvm.lifetime.start.p0(i64 8, ptr %11) #6
  call void @llvm.lifetime.start.p0(i64 4, ptr %12) #6
  store i32 0, ptr %12, align 4
  call void @llvm.lifetime.start.p0(i64 4, ptr %13) #6
  %15 = load ptr, ptr %6, align 8
  %16 = call i32 @tvb_reported_length(ptr noundef %15)
  store i32 %16, ptr %13, align 4
  %17 = load ptr, ptr %6, align 8
  %18 = load ptr, ptr %7, align 8
  %19 = load ptr, ptr %8, align 8
  %20 = load i32, ptr @proto_ccp_option_v44lzjh, align 4
  %21 = load i32, ptr @ett_ccp_v44lzjh_opt, align 4
  %22 = call zeroext i1 @dissect_ccp_var_opt(ptr noundef %17, ptr noundef %18, ptr noundef %19, i32 noundef %20, i32 noundef %21, i32 noundef 4, ptr noundef %10, ptr noundef %11)
  br i1 %22, label %26, label %23

23:                                               ; preds = %4
  %24 = load ptr, ptr %6, align 8
  %25 = call i32 @tvb_captured_length(ptr noundef %24)
  store i32 %25, ptr %5, align 4
  store i32 1, ptr %14, align 4
  br label %55

26:                                               ; preds = %4
  %27 = load ptr, ptr %10, align 8
  %28 = load i32, ptr @hf_ccp_opt_mode_dictcount, align 4
  %29 = load ptr, ptr %6, align 8
  %30 = load i32, ptr %12, align 4
  %31 = add i32 %30, 2
  %32 = call ptr @proto_tree_add_item(ptr noundef %27, i32 noundef %28, ptr noundef %29, i32 noundef %31, i32 noundef 2, i32 noundef 0)
  %33 = load i32, ptr %13, align 4
  %34 = icmp sgt i32 %33, 4
  br i1 %34, label %35, label %52

35:                                               ; preds = %26
  %36 = load ptr, ptr %10, align 8
  %37 = load i32, ptr @hf_ccp_opt_dict_size, align 4
  %38 = load ptr, ptr %6, align 8
  %39 = load i32, ptr %12, align 4
  %40 = add i32 %39, 4
  %41 = call ptr @proto_tree_add_item(ptr noundef %36, i32 noundef %37, ptr noundef %38, i32 noundef %40, i32 noundef 2, i32 noundef 0)
  %42 = load i32, ptr %13, align 4
  %43 = icmp sgt i32 %42, 6
  br i1 %43, label %44, label %51

44:                                               ; preds = %35
  %45 = load ptr, ptr %10, align 8
  %46 = load i32, ptr @hf_ccp_opt_history_length, align 4
  %47 = load ptr, ptr %6, align 8
  %48 = load i32, ptr %12, align 4
  %49 = add i32 %48, 6
  %50 = call ptr @proto_tree_add_item(ptr noundef %45, i32 noundef %46, ptr noundef %47, i32 noundef %49, i32 noundef 2, i32 noundef 0)
  br label %51

51:                                               ; preds = %44, %35
  br label %52

52:                                               ; preds = %51, %26
  %53 = load ptr, ptr %6, align 8
  %54 = call i32 @tvb_captured_length(ptr noundef %53)
  store i32 %54, ptr %5, align 4
  store i32 1, ptr %14, align 4
  br label %55

55:                                               ; preds = %52, %23
  call void @llvm.lifetime.end.p0(i64 4, ptr %13) #6
  call void @llvm.lifetime.end.p0(i64 4, ptr %12) #6
  call void @llvm.lifetime.end.p0(i64 8, ptr %11) #6
  call void @llvm.lifetime.end.p0(i64 8, ptr %10) #6
  %56 = load i32, ptr %5, align 4
  ret i32 %56
}