; Function Attrs: null_pointer_is_valid sspstrong uwtable
define internal i32 @dissect_ccp_v44lzjh_opt(ptr noundef %0, ptr noundef %1, ptr noundef %2, ptr readnone captures(none) %3) #1 {
  %5 = alloca ptr, align 8
  %6 = alloca ptr, align 8
  call void @llvm.lifetime.start.p0(i64 8, ptr nonnull %5) #8
  call void @llvm.lifetime.start.p0(i64 8, ptr nonnull %6) #8
  %7 = tail call i32 @tvb_reported_length(ptr noundef %0)
  %8 = load i32, ptr @proto_ccp_option_v44lzjh, align 4
  %9 = load i32, ptr @ett_ccp_v44lzjh_opt, align 4
  %10 = call fastcc zeroext i1 @dissect_ccp_var_opt(ptr noundef %0, ptr noundef %1, ptr noundef %2, i32 noundef %8, i32 noundef %9, i32 noundef 4, ptr noundef nonnull %5, ptr noundef nonnull %6)
  br i1 %10, label %11, label %23

11:                                               ; preds = %4
  %12 = load ptr, ptr %5, align 8
  %13 = load i32, ptr @hf_ccp_opt_mode_dictcount, align 4
  %14 = tail call ptr @proto_tree_add_item(ptr noundef %12, i32 noundef %13, ptr noundef %0, i32 noundef 2, i32 noundef 2, i32 noundef 0)
  %15 = icmp sgt i32 %7, 4
  br i1 %15, label %16, label %23

16:                                               ; preds = %11
  %17 = load i32, ptr @hf_ccp_opt_dict_size, align 4
  %18 = tail call ptr @proto_tree_add_item(ptr noundef %12, i32 noundef %17, ptr noundef %0, i32 noundef 4, i32 noundef 2, i32 noundef 0)
  %19 = icmp samesign ugt i32 %7, 6
  br i1 %19, label %20, label %23

20:                                               ; preds = %16
  %21 = load i32, ptr @hf_ccp_opt_history_length, align 4
  %22 = tail call ptr @proto_tree_add_item(ptr noundef %12, i32 noundef %21, ptr noundef %0, i32 noundef 6, i32 noundef 2, i32 noundef 0)
  br label %23

23:                                               ; preds = %11, %20, %16, %4
  %24 = tail call i32 @tvb_captured_length(ptr noundef %0)
  call void @llvm.lifetime.end.p0(i64 8, ptr nonnull %6) #8
  call void @llvm.lifetime.end.p0(i64 8, ptr nonnull %5) #8
  ret i32 %24
}